; Function Attrs: nofree norecurse nosync nounwind memory(read, inaccessiblemem: none) uwtable
define range(i32 -1, 65535) i32 @lv_obj_get_index(ptr noundef readonly captures(address) %0) local_unnamed_addr #4 {
  %.not = icmp eq ptr %0, null
  br i1 %.not, label %.preheader, label %lv_obj_get_parent.exit

.preheader:                                       ; preds = %1, %.preheader
  br label %.preheader

lv_obj_get_parent.exit:                           ; preds = %1
  %2 = getelementptr inbounds nuw i8, ptr %0, i64 8
  %3 = load ptr, ptr %2, align 8, !tbaa !3
  %4 = icmp eq ptr %3, null
  br i1 %4, label %.loopexit, label %.preheader14

.preheader14:                                     ; preds = %lv_obj_get_parent.exit
  %5 = getelementptr inbounds nuw i8, ptr %3, i64 16
  %6 = load ptr, ptr %5, align 8, !tbaa !37
  %7 = getelementptr inbounds nuw i8, ptr %6, i64 64
  %8 = load i16, ptr %7, align 8, !tbaa !38
  %.not17 = icmp eq i16 %8, 0
  br i1 %.not17, label %.preheader13.preheader, label %.lr.ph

.lr.ph:                                           ; preds = %.preheader14
  %9 = load ptr, ptr %6, align 8, !tbaa !42
  %wide.trip.count = zext i16 %8 to i64
  br label %10

10:                                               ; preds = %.lr.ph, %14
  %indvars.iv = phi i64 [ 0, %.lr.ph ], [ %indvars.iv.next, %14 ]
  %11 = getelementptr inbounds nuw ptr, ptr %9, i64 %indvars.iv
  %12 = load ptr, ptr %11, align 8, !tbaa !33
  %13 = icmp eq ptr %12, %0
  br i1 %13, label %.loopexit.loopexit, label %14

14:                                               ; preds = %10
  %indvars.iv.next = add nuw nsw i64 %indvars.iv, 1
  %exitcond.not = icmp eq i64 %indvars.iv.next, %wide.trip.count
  br i1 %exitcond.not, label %.preheader13.preheader, label %10, !llvm.loop !58

.preheader13.preheader:                           ; preds = %14, %.preheader14
  br label %.preheader13

.preheader13:                                     ; preds = %.preheader13.preheader, %.preheader13
  br label %.preheader13

.loopexit.loopexit:                               ; preds = %10
  %15 = trunc nuw nsw i64 %indvars.iv to i32
  br label %.loopexit

.loopexit:                                        ; preds = %.loopexit.loopexit, %lv_obj_get_parent.exit
  %.010 = phi i32 [ -1, %lv_obj_get_parent.exit ], [ %15, %.loopexit.loopexit ]
  ret i32 %.010
}